target datalayout = "e-m:e-p270:32:32-p271:32:32-p272:64:64-i64:64-i128:128-f80:128-n8:16:32:64-S128"
target triple = "x86_64-pc-linux-gnu"

%struct._packet_info = type { ptr, ptr, i32, i32, %struct.nstime_t, %struct.nstime_t, %struct.nstime_t, i8, ptr, ptr, ptr, ptr, %struct._address, %struct._address, %struct._address, %struct._address, %struct._address, %struct._address, i32, ptr, i8, [3 x i8], %struct.anon, i32, i32, i32, i32, ptr, i8, ptr, ptr, i16, i16, i32, i32, i16, i32, i32, ptr, ptr, ptr, i8, i8, i16, i16, i16, i32, i16, i16, ptr, ptr, ptr, ptr, ptr, i32, i32 }
%struct.nstime_t = type { i64, i32 }
%struct._address = type { i32, i32, ptr, ptr }
%struct.anon = type { i8, [3 x i8] }

@bitcoin_handle = internal global ptr null, align 8
@bitcoin_desegment = internal global i8 1, align 1

; Function Attrs: null_pointer_is_valid sspstrong uwtable
define internal i32 @dissect_bitcoin(ptr noundef %0, ptr noundef %1, ptr noundef %2, ptr noundef %3) #0 {
  %5 = alloca ptr, align 8
  %6 = alloca ptr, align 8
  %7 = alloca ptr, align 8
  %8 = alloca ptr, align 8
  store ptr %0, ptr %5, align 8
  store ptr %1, ptr %6, align 8
  store ptr %2, ptr %7, align 8
  store ptr %3, ptr %8, align 8
  %9 = load ptr, ptr %6, align 8
  %10 = getelementptr inbounds nuw %struct._packet_info, ptr %9, i32 0, i32 1
  %11 = load ptr, ptr %10, align 8
  call void @col_clear(ptr noundef %11, i32 noundef 25)
  %12 = load ptr, ptr %5, align 8
  %13 = load ptr, ptr %6, align 8
  %14 = load ptr, ptr %7, align 8
  %15 = load i8, ptr @bitcoin_desegment, align 1, !range !6, !noundef !7
  %16 = trunc i8 %15 to i1
  %17 = load ptr, ptr %8, align 8
  call void @tcp_dissect_pdus(ptr noundef %12, ptr noundef %13, ptr noundef %14, i1 noundef zeroext %16, i32 noundef 24, ptr noundef @get_bitcoin_pdu_length, ptr noundef @dissect_bitcoin_tcp_pdu, ptr noundef %17)
  %18 = load ptr, ptr %5, align 8
  %19 = call i32 @tvb_reported_length(ptr noundef %18)
  ret i32 %19
}

; Function Attrs: null_pointer_is_valid sspstrong uwtable
define internal zeroext i1 @dissect_bitcoin_heur(ptr noundef %0, ptr noundef %1, ptr noundef %2, ptr noundef %3) #0 {
  %5 = alloca i1, align 1
  %6 = alloca ptr, align 8
  %7 = alloca ptr, align 8
  %8 = alloca ptr, align 8
  %9 = alloca ptr, align 8
  %10 = alloca i32, align 4
  %11 = alloca ptr, align 8
  %12 = alloca i32, align 4
  store ptr %0, ptr %6, align 8
  store ptr %1, ptr %7, align 8
  store ptr %2, ptr %8, align 8
  store ptr %3, ptr %9, align 8
  call void @llvm.lifetime.start.p0(i64 4, ptr %10) #4
  call void @llvm.lifetime.start.p0(i64 8, ptr %11) #4
  %13 = load ptr, ptr %6, align 8
  %14 = call i32 @tvb_captured_length(ptr noundef %13)
  %15 = icmp ult i32 %14, 4
  br i1 %15, label %16, label %17

16:                                               ; preds = %4
  store i1 false, ptr %5, align 1
  store i32 1, ptr %12, align 4
  br label %42

17:                                               ; preds = %4
  %18 = load ptr, ptr %6, align 8
  %19 = call i32 @tvb_get_letohl(ptr noundef %18, i32 noundef 0)
  store i32 %19, ptr %10, align 4
  %20 = load i32, ptr %10, align 4
  %21 = icmp ne i32 %20, -642466055
  br i1 %21, label %22, label %32

22:                                               ; preds = %17
  %23 = load i32, ptr %10, align 4
  %24 = icmp ne i32 %23, -625623046
  br i1 %24, label %25, label %32

25:                                               ; preds = %22
  %26 = load i32, ptr %10, align 4
  %27 = icmp ne i32 %26, 118034699
  br i1 %27, label %28, label %32

28:                                               ; preds = %25
  %29 = load i32, ptr %10, align 4
  %30 = icmp ne i32 %29, 675223068
  br i1 %30, label %31, label %32

31:                                               ; preds = %28
  store i1 false, ptr %5, align 1
  store i32 1, ptr %12, align 4
  br label %42

32:                                               ; preds = %28, %25, %22, %17
  %33 = load ptr, ptr %7, align 8
  %34 = call ptr @find_or_create_conversation(ptr noundef %33)
  store ptr %34, ptr %11, align 8
  %35 = load ptr, ptr %11, align 8
  %36 = load ptr, ptr @bitcoin_handle, align 8
  call void @conversation_set_dissector(ptr noundef %35, ptr noundef %36)
  %37 = load ptr, ptr %6, align 8
  %38 = load ptr, ptr %7, align 8
  %39 = load ptr, ptr %8, align 8
  %40 = load ptr, ptr %9, align 8
  %41 = call i32 @dissect_bitcoin(ptr noundef %37, ptr noundef %38, ptr noundef %39, ptr noundef %40)
  store i1 true, ptr %5, align 1
  store i32 1, ptr %12, align 4
  br label %42

42:                                               ; preds = %32, %31, %16
  call void @llvm.lifetime.end.p0(i64 8, ptr %11) #4
  call void @llvm.lifetime.end.p0(i64 4, ptr %10) #4
  %43 = load i1, ptr %5, align 1
  ret i1 %43
}