; Function Attrs: null_pointer_is_valid sspstrong uwtable
define internal noundef zeroext i1 @dissect_bitcoin_heur(ptr noundef %0, ptr noundef %1, ptr noundef %2, ptr noundef %3) #0 {
  %5 = tail call i32 @tvb_captured_length(ptr noundef %0)
  %6 = icmp ult i32 %5, 4
  br i1 %6, label %17, label %7

7:                                                ; preds = %4
  %8 = tail call i32 @tvb_get_letohl(ptr noundef %0, i32 noundef 0)
  switch i32 %8, label %17 [
    i32 -625623046, label %9
    i32 -642466055, label %9
    i32 675223068, label %9
    i32 118034699, label %9
  ]

9:                                                ; preds = %7, %7, %7, %7
  %10 = tail call ptr @find_or_create_conversation(ptr noundef %1)
  %11 = load ptr, ptr @bitcoin_handle, align 8
  tail call void @conversation_set_dissector(ptr noundef %10, ptr noundef %11)
  %12 = getelementptr inbounds nuw i8, ptr %1, i64 8
  %13 = load ptr, ptr %12, align 8
  tail call void @col_clear(ptr noundef %13, i32 noundef 25)
  %14 = load i8, ptr @bitcoin_desegment, align 1, !range !6, !noundef !7
  %15 = trunc nuw i8 %14 to i1
  tail call void @tcp_dissect_pdus(ptr noundef %0, ptr noundef %1, ptr noundef %2, i1 noundef zeroext %15, i32 noundef 24, ptr noundef nonnull @get_bitcoin_pdu_length, ptr noundef nonnull @dissect_bitcoin_tcp_pdu, ptr noundef %3)
  %16 = tail call i32 @tvb_reported_length(ptr noundef %0)
  br label %17

17:                                               ; preds = %7, %4, %9
  %.0 = phi i1 [ true, %9 ], [ false, %4 ], [ false, %7 ]
  ret i1 %.0
}